target datalayout = "e-m:e-p270:32:32-p271:32:32-p272:64:64-i64:64-i128:128-f80:128-n8:16:32:64-S128"
target triple = "x86_64-pc-linux-gnu"

%struct.z_stream_s = type { ptr, i32, i64, ptr, i32, i64, ptr, ptr, ptr, ptr, ptr, i32, i64, i64 }

@.str.11 = private unnamed_addr constant [7 x i8] c"1.2.11\00", align 1
@.str.16 = private unnamed_addr constant [48 x i8] c"INFLATER_inflateFully: Unexpected end of stream\00", align 1
@.str.17 = private unnamed_addr constant [49 x i8] c"INFLATER_inflateFully: Compressed data corrupted\00", align 1
@.str.18 = private unnamed_addr constant [37 x i8] c"INFLATER_inflateFully: out of memory\00", align 1
@.str.19 = private unnamed_addr constant [38 x i8] c"INFLATER_inflateFully: internal error\00", align 1

; Function Attrs: nounwind uwtable
define zeroext i8 @ZIP_InflateFully(ptr noundef %0, i64 noundef %1, ptr noundef %2, i64 noundef %3, ptr noundef %4) #0 {
  %6 = alloca i8, align 1
  %7 = alloca ptr, align 8
  %8 = alloca i64, align 8
  %9 = alloca ptr, align 8
  %10 = alloca i64, align 8
  %11 = alloca ptr, align 8
  %12 = alloca %struct.z_stream_s, align 8
  store ptr %0, ptr %7, align 8
  store i64 %1, ptr %8, align 8
  store ptr %2, ptr %9, align 8
  store i64 %3, ptr %10, align 8
  store ptr %4, ptr %11, align 8
  call void @llvm.memset.p0.i64(ptr align 8 %12, i8 0, i64 112, i1 false)
  %13 = load ptr, ptr %11, align 8
  store ptr null, ptr %13, align 8
  %14 = call i32 @inflateInit2_(ptr noundef %12, i32 noundef 15, ptr noundef @.str.11, i32 noundef 112)
  %15 = icmp ne i32 %14, 0
  br i1 %15, label %16, label %20

16:                                               ; preds = %5
  %17 = getelementptr inbounds %struct.z_stream_s, ptr %12, i32 0, i32 6
  %18 = load ptr, ptr %17, align 8
  %19 = load ptr, ptr %11, align 8
  store ptr %18, ptr %19, align 8
  store i8 0, ptr %6, align 1
  br label %61

20:                                               ; preds = %5
  %21 = load ptr, ptr %9, align 8
  %22 = getelementptr inbounds %struct.z_stream_s, ptr %12, i32 0, i32 3
  store ptr %21, ptr %22, align 8
  %23 = load i64, ptr %10, align 8
  %24 = trunc i64 %23 to i32
  %25 = getelementptr inbounds %struct.z_stream_s, ptr %12, i32 0, i32 4
  store i32 %24, ptr %25, align 8
  %26 = load ptr, ptr %7, align 8
  %27 = getelementptr inbounds %struct.z_stream_s, ptr %12, i32 0, i32 0
  store ptr %26, ptr %27, align 8
  %28 = load i64, ptr %8, align 8
  %29 = trunc i64 %28 to i32
  %30 = getelementptr inbounds %struct.z_stream_s, ptr %12, i32 0, i32 1
  store i32 %29, ptr %30, align 8
  br label %31

31:                                               ; preds = %55, %20
  %32 = call i32 @inflate(ptr noundef %12, i32 noundef 1)
  switch i32 %32, label %51 [
    i32 0, label %33
    i32 1, label %34
    i32 -3, label %45
    i32 -4, label %48
  ]

33:                                               ; preds = %31
  br label %54

34:                                               ; preds = %31
  %35 = getelementptr inbounds %struct.z_stream_s, ptr %12, i32 0, i32 5
  %36 = load i64, ptr %35, align 8
  %37 = load i64, ptr %10, align 8
  %38 = trunc i64 %37 to i32
  %39 = zext i32 %38 to i64
  %40 = icmp ne i64 %36, %39
  br i1 %40, label %41, label %44

41:                                               ; preds = %34
  %42 = load ptr, ptr %11, align 8
  store ptr @.str.16, ptr %42, align 8
  %43 = call i32 @inflateEnd(ptr noundef %12)
  store i8 0, ptr %6, align 1
  br label %61

44:                                               ; preds = %34
  br label %54

45:                                               ; preds = %31
  %46 = load ptr, ptr %11, align 8
  store ptr @.str.17, ptr %46, align 8
  %47 = call i32 @inflateEnd(ptr noundef %12)
  store i8 0, ptr %6, align 1
  br label %61

48:                                               ; preds = %31
  %49 = load ptr, ptr %11, align 8
  store ptr @.str.18, ptr %49, align 8
  %50 = call i32 @inflateEnd(ptr noundef %12)
  store i8 0, ptr %6, align 1
  br label %61

51:                                               ; preds = %31
  %52 = load ptr, ptr %11, align 8
  store ptr @.str.19, ptr %52, align 8
  %53 = call i32 @inflateEnd(ptr noundef %12)
  store i8 0, ptr %6, align 1
  br label %61

54:                                               ; preds = %44, %33
  br label %55

55:                                               ; preds = %54
  %56 = getelementptr inbounds %struct.z_stream_s, ptr %12, i32 0, i32 1
  %57 = load i32, ptr %56, align 8
  %58 = icmp ugt i32 %57, 0
  br i1 %58, label %31, label %59, !llvm.loop !19

59:                                               ; preds = %55
  %60 = call i32 @inflateEnd(ptr noundef %12)
  store i8 1, ptr %6, align 1
  br label %61

61:                                               ; preds = %59, %51, %48, %45, %41, %16
  %62 = load i8, ptr %6, align 1
  ret i8 %62
}