; Function Attrs: nounwind uwtable
define zeroext range(i8 0, 2) i8 @ZIP_InflateFully(ptr noundef %0, i64 noundef %1, ptr noundef %2, i64 noundef %3, ptr nocapture noundef writeonly %4) local_unnamed_addr #0 {
  %6 = alloca %struct.z_stream_s, align 8
  call void @llvm.memset.p0.i64(ptr noundef nonnull align 8 dereferenceable(112) %6, i8 0, i64 112, i1 false)
  store ptr null, ptr %4, align 8
  %7 = call i32 @inflateInit2_(ptr noundef nonnull %6, i32 noundef 15, ptr noundef nonnull @.str.11, i32 noundef 112) #21
  %.not = icmp eq i32 %7, 0
  br i1 %.not, label %11, label %8

8:                                                ; preds = %5
  %9 = getelementptr inbounds i8, ptr %6, i64 48
  %10 = load ptr, ptr %9, align 8
  store ptr %10, ptr %4, align 8
  br label %35

11:                                               ; preds = %5
  %12 = getelementptr inbounds i8, ptr %6, i64 24
  store ptr %2, ptr %12, align 8
  %13 = trunc i64 %3 to i32
  %14 = getelementptr inbounds i8, ptr %6, i64 32
  store i32 %13, ptr %14, align 8
  store ptr %0, ptr %6, align 8
  %15 = trunc i64 %1 to i32
  %16 = getelementptr inbounds i8, ptr %6, i64 8
  store i32 %15, ptr %16, align 8
  %17 = getelementptr inbounds i8, ptr %6, i64 40
  %18 = and i64 %3, 4294967295
  br label %19

19:                                               ; preds = %31, %11
  %20 = call i32 @inflate(ptr noundef nonnull %6, i32 noundef 1) #21
  switch i32 %20, label %29 [
    i32 0, label %31
    i32 1, label %21
    i32 -3, label %25
    i32 -4, label %27
  ]

21:                                               ; preds = %19
  %22 = load i64, ptr %17, align 8
  %.not11 = icmp eq i64 %22, %18
  br i1 %.not11, label %31, label %23

23:                                               ; preds = %21
  store ptr @.str.16, ptr %4, align 8
  %24 = call i32 @inflateEnd(ptr noundef nonnull %6) #21
  br label %35

25:                                               ; preds = %19
  store ptr @.str.17, ptr %4, align 8
  %26 = call i32 @inflateEnd(ptr noundef nonnull %6) #21
  br label %35

27:                                               ; preds = %19
  store ptr @.str.18, ptr %4, align 8
  %28 = call i32 @inflateEnd(ptr noundef nonnull %6) #21
  br label %35

29:                                               ; preds = %19
  store ptr @.str.19, ptr %4, align 8
  %30 = call i32 @inflateEnd(ptr noundef nonnull %6) #21
  br label %35

31:                                               ; preds = %19, %21
  %32 = load i32, ptr %16, align 8
  %.not12 = icmp eq i32 %32, 0
  br i1 %.not12, label %33, label %19, !llvm.loop !24

33:                                               ; preds = %31
  %34 = call i32 @inflateEnd(ptr noundef nonnull %6) #21
  br label %35

35:                                               ; preds = %33, %29, %27, %25, %23, %8
  %.0 = phi i8 [ 0, %8 ], [ 0, %29 ], [ 0, %27 ], [ 0, %25 ], [ 0, %23 ], [ 1, %33 ]
  ret i8 %.0
}